; Function Attrs: inlinehint mustprogress nounwind uwtable
define internal fastcc void @_ZN9grpc_core12_GLOBAL__N_110RbacConfig10RbacPolicy5Rules6Policy11HeaderMatchD2Ev(ptr noundef nonnull align 8 dereferenceable(120) %0) unnamed_addr #8 align 2 personality ptr @__gxx_personality_v0 {
  %2 = getelementptr inbounds nuw i8, ptr %0, i64 80
  %3 = load ptr, ptr %2, align 8, !tbaa !213
  %.not.i.i.i = icmp eq ptr %3, null
  br i1 %.not.i.i.i, label %_ZNSt10unique_ptrIN3re23RE2ESt14default_deleteIS1_EED2Ev.exit.i.i, label %_ZNKSt14default_deleteIN3re23RE2EEclEPS1_.exit.i.i.i

_ZNKSt14default_deleteIN3re23RE2EEclEPS1_.exit.i.i.i: ; preds = %1
  tail call void @_ZN3re23RE2D1Ev(ptr noundef nonnull align 8 dereferenceable(212) %3) #26
  tail call void @_ZdlPvm(ptr noundef nonnull %3, i64 noundef 216) #30
  br label %_ZNSt10unique_ptrIN3re23RE2ESt14default_deleteIS1_EED2Ev.exit.i.i

_ZNSt10unique_ptrIN3re23RE2ESt14default_deleteIS1_EED2Ev.exit.i.i: ; preds = %_ZNKSt14default_deleteIN3re23RE2EEclEPS1_.exit.i.i.i, %1
  store ptr null, ptr %2, align 8, !tbaa !213
  %4 = getelementptr inbounds nuw i8, ptr %0, i64 48
  %5 = load ptr, ptr %4, align 8, !tbaa !50
  %6 = getelementptr inbounds nuw i8, ptr %0, i64 64
  %7 = icmp eq ptr %5, %6
  br i1 %7, label %_ZNKSt7__cxx1112basic_stringIcSt11char_traitsIcESaIcEE11_M_is_localEv.exit.thread.i.i.i.i, label %_ZNKSt7__cxx1112basic_stringIcSt11char_traitsIcESaIcEE11_M_is_localEv.exit.i.i.i.i

_ZNKSt7__cxx1112basic_stringIcSt11char_traitsIcESaIcEE11_M_is_localEv.exit.thread.i.i.i.i: ; preds = %_ZNSt10unique_ptrIN3re23RE2ESt14default_deleteIS1_EED2Ev.exit.i.i
  %8 = getelementptr inbounds nuw i8, ptr %0, i64 56
  %9 = load i64, ptr %8, align 8, !tbaa !38
  %10 = icmp ult i64 %9, 16
  tail call void @llvm.assume(i1 %10)
  br label %_ZN9grpc_core13StringMatcherD2Ev.exit.i

_ZNKSt7__cxx1112basic_stringIcSt11char_traitsIcESaIcEE11_M_is_localEv.exit.i.i.i.i: ; preds = %_ZNSt10unique_ptrIN3re23RE2ESt14default_deleteIS1_EED2Ev.exit.i.i
  %11 = load i64, ptr %6, align 8, !tbaa !41
  %12 = add i64 %11, 1
  tail call void @_ZdlPvm(ptr noundef %5, i64 noundef %12) #30
  br label %_ZN9grpc_core13StringMatcherD2Ev.exit.i

_ZN9grpc_core13StringMatcherD2Ev.exit.i:          ; preds = %_ZNKSt7__cxx1112basic_stringIcSt11char_traitsIcESaIcEE11_M_is_localEv.exit.i.i.i.i, %_ZNKSt7__cxx1112basic_stringIcSt11char_traitsIcESaIcEE11_M_is_localEv.exit.thread.i.i.i.i
  %13 = load ptr, ptr %0, align 8, !tbaa !50
  %14 = getelementptr inbounds nuw i8, ptr %0, i64 16
  %15 = icmp eq ptr %13, %14
  br i1 %15, label %_ZNKSt7__cxx1112basic_stringIcSt11char_traitsIcESaIcEE11_M_is_localEv.exit.thread.i.i.i, label %_ZNKSt7__cxx1112basic_stringIcSt11char_traitsIcESaIcEE11_M_is_localEv.exit.i.i.i

_ZNKSt7__cxx1112basic_stringIcSt11char_traitsIcESaIcEE11_M_is_localEv.exit.thread.i.i.i: ; preds = %_ZN9grpc_core13StringMatcherD2Ev.exit.i
  %16 = getelementptr inbounds nuw i8, ptr %0, i64 8
  %17 = load i64, ptr %16, align 8, !tbaa !38
  %18 = icmp ult i64 %17, 16
  tail call void @llvm.assume(i1 %18)
  br label %_ZN9grpc_core13HeaderMatcherD2Ev.exit

_ZNKSt7__cxx1112basic_stringIcSt11char_traitsIcESaIcEE11_M_is_localEv.exit.i.i.i: ; preds = %_ZN9grpc_core13StringMatcherD2Ev.exit.i
  %19 = load i64, ptr %14, align 8, !tbaa !41
  %20 = add i64 %19, 1
  tail call void @_ZdlPvm(ptr noundef %13, i64 noundef %20) #30
  br label %_ZN9grpc_core13HeaderMatcherD2Ev.exit

_ZN9grpc_core13HeaderMatcherD2Ev.exit:            ; preds = %_ZNKSt7__cxx1112basic_stringIcSt11char_traitsIcESaIcEE11_M_is_localEv.exit.thread.i.i.i, %_ZNKSt7__cxx1112basic_stringIcSt11char_traitsIcESaIcEE11_M_is_localEv.exit.i.i.i
  ret void
}